
testc:     file format elf32-i386


Disassembly of section .init:

0000039c <_init>:
 39c:	53                   	push   %ebx
 39d:	83 ec 08             	sub    $0x8,%esp
 3a0:	e8 8b 00 00 00       	call   430 <__x86.get_pc_thunk.bx>
 3a5:	81 c3 5b 1c 00 00    	add    $0x1c5b,%ebx
 3ab:	8b 83 f0 ff ff ff    	mov    -0x10(%ebx),%eax
 3b1:	85 c0                	test   %eax,%eax
 3b3:	74 05                	je     3ba <_init+0x1e>
 3b5:	e8 2e 00 00 00       	call   3e8 <.plt.got+0x8>
 3ba:	83 c4 08             	add    $0x8,%esp
 3bd:	5b                   	pop    %ebx
 3be:	c3                   	ret    

Disassembly of section .plt:

000003c0 <.plt>:
 3c0:	ff b3 04 00 00 00    	pushl  0x4(%ebx)
 3c6:	ff a3 08 00 00 00    	jmp    *0x8(%ebx)
 3cc:	00 00                	add    %al,(%eax)
	...

000003d0 <__libc_start_main@plt>:
 3d0:	ff a3 0c 00 00 00    	jmp    *0xc(%ebx)
 3d6:	68 00 00 00 00       	push   $0x0
 3db:	e9 e0 ff ff ff       	jmp    3c0 <.plt>

Disassembly of section .plt.got:

000003e0 <.plt.got>:
 3e0:	ff a3 ec ff ff ff    	jmp    *-0x14(%ebx)
 3e6:	66 90                	xchg   %ax,%ax
 3e8:	ff a3 f0 ff ff ff    	jmp    *-0x10(%ebx)
 3ee:	66 90                	xchg   %ax,%ax

Disassembly of section .text:

000003f0 <_start>:
 3f0:	31 ed                	xor    %ebp,%ebp
 3f2:	5e                   	pop    %esi
 3f3:	89 e1                	mov    %esp,%ecx
 3f5:	83 e4 f0             	and    $0xfffffff0,%esp
 3f8:	50                   	push   %eax
 3f9:	54                   	push   %esp
 3fa:	52                   	push   %edx
 3fb:	e8 22 00 00 00       	call   422 <_start+0x32>
 400:	81 c3 00 1c 00 00    	add    $0x1c00,%ebx
 406:	8d 83 e0 e5 ff ff    	lea    -0x1a20(%ebx),%eax
 40c:	50                   	push   %eax
 40d:	8d 83 80 e5 ff ff    	lea    -0x1a80(%ebx),%eax
 413:	50                   	push   %eax
 414:	51                   	push   %ecx
 415:	56                   	push   %esi
 416:	ff b3 f4 ff ff ff    	pushl  -0xc(%ebx)
 41c:	e8 af ff ff ff       	call   3d0 <__libc_start_main@plt>
 421:	f4                   	hlt    
 422:	8b 1c 24             	mov    (%esp),%ebx
 425:	c3                   	ret    
 426:	66 90                	xchg   %ax,%ax
 428:	66 90                	xchg   %ax,%ax
 42a:	66 90                	xchg   %ax,%ax
 42c:	66 90                	xchg   %ax,%ax
 42e:	66 90                	xchg   %ax,%ax

00000430 <__x86.get_pc_thunk.bx>:
 430:	8b 1c 24             	mov    (%esp),%ebx
 433:	c3                   	ret    
 434:	66 90                	xchg   %ax,%ax
 436:	66 90                	xchg   %ax,%ax
 438:	66 90                	xchg   %ax,%ax
 43a:	66 90                	xchg   %ax,%ax
 43c:	66 90                	xchg   %ax,%ax
 43e:	66 90                	xchg   %ax,%ax

00000440 <deregister_tm_clones>:
 440:	e8 17 01 00 00       	call   55c <__x86.get_pc_thunk.dx>
 445:	81 c2 bb 1b 00 00    	add    $0x1bbb,%edx
 44b:	8d 8a 18 00 00 00    	lea    0x18(%edx),%ecx
 451:	8d 82 1b 00 00 00    	lea    0x1b(%edx),%eax
 457:	29 c8                	sub    %ecx,%eax
 459:	83 f8 06             	cmp    $0x6,%eax
 45c:	76 17                	jbe    475 <deregister_tm_clones+0x35>
 45e:	8b 82 e8 ff ff ff    	mov    -0x18(%edx),%eax
 464:	85 c0                	test   %eax,%eax
 466:	74 0d                	je     475 <deregister_tm_clones+0x35>
 468:	55                   	push   %ebp
 469:	89 e5                	mov    %esp,%ebp
 46b:	83 ec 14             	sub    $0x14,%esp
 46e:	51                   	push   %ecx
 46f:	ff d0                	call   *%eax
 471:	83 c4 10             	add    $0x10,%esp
 474:	c9                   	leave  
 475:	f3 c3                	repz ret 
 477:	89 f6                	mov    %esi,%esi
 479:	8d bc 27 00 00 00 00 	lea    0x0(%edi,%eiz,1),%edi

00000480 <register_tm_clones>:
 480:	e8 d7 00 00 00       	call   55c <__x86.get_pc_thunk.dx>
 485:	81 c2 7b 1b 00 00    	add    $0x1b7b,%edx
 48b:	55                   	push   %ebp
 48c:	8d 8a 18 00 00 00    	lea    0x18(%edx),%ecx
 492:	8d 82 18 00 00 00    	lea    0x18(%edx),%eax
 498:	89 e5                	mov    %esp,%ebp
 49a:	53                   	push   %ebx
 49b:	29 c8                	sub    %ecx,%eax
 49d:	c1 f8 02             	sar    $0x2,%eax
 4a0:	83 ec 04             	sub    $0x4,%esp
 4a3:	89 c3                	mov    %eax,%ebx
 4a5:	c1 eb 1f             	shr    $0x1f,%ebx
 4a8:	01 d8                	add    %ebx,%eax
 4aa:	d1 f8                	sar    %eax
 4ac:	74 14                	je     4c2 <register_tm_clones+0x42>
 4ae:	8b 92 fc ff ff ff    	mov    -0x4(%edx),%edx
 4b4:	85 d2                	test   %edx,%edx
 4b6:	74 0a                	je     4c2 <register_tm_clones+0x42>
 4b8:	83 ec 08             	sub    $0x8,%esp
 4bb:	50                   	push   %eax
 4bc:	51                   	push   %ecx
 4bd:	ff d2                	call   *%edx
 4bf:	83 c4 10             	add    $0x10,%esp
 4c2:	8b 5d fc             	mov    -0x4(%ebp),%ebx
 4c5:	c9                   	leave  
 4c6:	c3                   	ret    
 4c7:	89 f6                	mov    %esi,%esi
 4c9:	8d bc 27 00 00 00 00 	lea    0x0(%edi,%eiz,1),%edi

000004d0 <__do_global_dtors_aux>:
 4d0:	55                   	push   %ebp
 4d1:	89 e5                	mov    %esp,%ebp
 4d3:	53                   	push   %ebx
 4d4:	e8 57 ff ff ff       	call   430 <__x86.get_pc_thunk.bx>
 4d9:	81 c3 27 1b 00 00    	add    $0x1b27,%ebx
 4df:	83 ec 04             	sub    $0x4,%esp
 4e2:	80 bb 18 00 00 00 00 	cmpb   $0x0,0x18(%ebx)
 4e9:	75 27                	jne    512 <__do_global_dtors_aux+0x42>
 4eb:	8b 83 ec ff ff ff    	mov    -0x14(%ebx),%eax
 4f1:	85 c0                	test   %eax,%eax
 4f3:	74 11                	je     506 <__do_global_dtors_aux+0x36>
 4f5:	83 ec 0c             	sub    $0xc,%esp
 4f8:	ff b3 14 00 00 00    	pushl  0x14(%ebx)
 4fe:	e8 dd fe ff ff       	call   3e0 <.plt.got>
 503:	83 c4 10             	add    $0x10,%esp
 506:	e8 35 ff ff ff       	call   440 <deregister_tm_clones>
 50b:	c6 83 18 00 00 00 01 	movb   $0x1,0x18(%ebx)
 512:	8b 5d fc             	mov    -0x4(%ebp),%ebx
 515:	c9                   	leave  
 516:	c3                   	ret    
 517:	89 f6                	mov    %esi,%esi
 519:	8d bc 27 00 00 00 00 	lea    0x0(%edi,%eiz,1),%edi

00000520 <frame_dummy>:
 520:	e8 37 00 00 00       	call   55c <__x86.get_pc_thunk.dx>
 525:	81 c2 db 1a 00 00    	add    $0x1adb,%edx
 52b:	8d 82 f4 fe ff ff    	lea    -0x10c(%edx),%eax
 531:	8b 08                	mov    (%eax),%ecx
 533:	85 c9                	test   %ecx,%ecx
 535:	75 09                	jne    540 <frame_dummy+0x20>
 537:	e9 44 ff ff ff       	jmp    480 <register_tm_clones>
 53c:	8d 74 26 00          	lea    0x0(%esi,%eiz,1),%esi
 540:	8b 92 f8 ff ff ff    	mov    -0x8(%edx),%edx
 546:	85 d2                	test   %edx,%edx
 548:	74 ed                	je     537 <frame_dummy+0x17>
 54a:	55                   	push   %ebp
 54b:	89 e5                	mov    %esp,%ebp
 54d:	83 ec 14             	sub    $0x14,%esp
 550:	50                   	push   %eax
 551:	ff d2                	call   *%edx
 553:	83 c4 10             	add    $0x10,%esp
 556:	c9                   	leave  
 557:	e9 24 ff ff ff       	jmp    480 <register_tm_clones>

0000055c <__x86.get_pc_thunk.dx>:
 55c:	8b 14 24             	mov    (%esp),%edx
 55f:	c3                   	ret    

00000560 <main>:
 560:	55                   	push   %ebp
 561:	89 e5                	mov    %esp,%ebp
 563:	e8 0c 00 00 00       	call   574 <__x86.get_pc_thunk.ax>
 568:	05 98 1a 00 00       	add    $0x1a98,%eax
 56d:	b8 03 00 00 00       	mov    $0x3,%eax
 572:	5d                   	pop    %ebp
 573:	c3                   	ret    

00000574 <__x86.get_pc_thunk.ax>:
 574:	8b 04 24             	mov    (%esp),%eax
 577:	c3                   	ret    
 578:	66 90                	xchg   %ax,%ax
 57a:	66 90                	xchg   %ax,%ax
 57c:	66 90                	xchg   %ax,%ax
 57e:	66 90                	xchg   %ax,%ax

00000580 <__libc_csu_init>:
 580:	55                   	push   %ebp
 581:	57                   	push   %edi
 582:	56                   	push   %esi
 583:	53                   	push   %ebx
 584:	e8 a7 fe ff ff       	call   430 <__x86.get_pc_thunk.bx>
 589:	81 c3 77 1a 00 00    	add    $0x1a77,%ebx
 58f:	83 ec 0c             	sub    $0xc,%esp
 592:	8b 6c 24 20          	mov    0x20(%esp),%ebp
 596:	8d b3 f0 fe ff ff    	lea    -0x110(%ebx),%esi
 59c:	e8 fb fd ff ff       	call   39c <_init>
 5a1:	8d 83 ec fe ff ff    	lea    -0x114(%ebx),%eax
 5a7:	29 c6                	sub    %eax,%esi
 5a9:	c1 fe 02             	sar    $0x2,%esi
 5ac:	85 f6                	test   %esi,%esi
 5ae:	74 25                	je     5d5 <__libc_csu_init+0x55>
 5b0:	31 ff                	xor    %edi,%edi
 5b2:	8d b6 00 00 00 00    	lea    0x0(%esi),%esi
 5b8:	83 ec 04             	sub    $0x4,%esp
 5bb:	ff 74 24 2c          	pushl  0x2c(%esp)
 5bf:	ff 74 24 2c          	pushl  0x2c(%esp)
 5c3:	55                   	push   %ebp
 5c4:	ff 94 bb ec fe ff ff 	call   *-0x114(%ebx,%edi,4)
 5cb:	83 c7 01             	add    $0x1,%edi
 5ce:	83 c4 10             	add    $0x10,%esp
 5d1:	39 fe                	cmp    %edi,%esi
 5d3:	75 e3                	jne    5b8 <__libc_csu_init+0x38>
 5d5:	83 c4 0c             	add    $0xc,%esp
 5d8:	5b                   	pop    %ebx
 5d9:	5e                   	pop    %esi
 5da:	5f                   	pop    %edi
 5db:	5d                   	pop    %ebp
 5dc:	c3                   	ret    
 5dd:	8d 76 00             	lea    0x0(%esi),%esi

000005e0 <__libc_csu_fini>:
 5e0:	f3 c3                	repz ret 

Disassembly of section .fini:

000005e4 <_fini>:
 5e4:	53                   	push   %ebx
 5e5:	83 ec 08             	sub    $0x8,%esp
 5e8:	e8 43 fe ff ff       	call   430 <__x86.get_pc_thunk.bx>
 5ed:	81 c3 13 1a 00 00    	add    $0x1a13,%ebx
 5f3:	83 c4 08             	add    $0x8,%esp
 5f6:	5b                   	pop    %ebx
 5f7:	c3                   	ret    
